; Function Attrs: nounwind uwtable
define ptr @l_Std_DHashMap_Internal_AssocList_get_x3f___at_Lean_IR_EmitC_getJPParams___spec__1(ptr noundef %0, ptr noundef %1) local_unnamed_addr #0 {
  %3 = ptrtoint ptr %0 to i64
  %4 = and i64 %3, 1
  br label %.backedge

.backedge:                                        ; preds = %.backedge.backedge, %2
  %.015 = phi ptr [ %1, %2 ], [ %20, %.backedge.backedge ]
  %5 = ptrtoint ptr %.015 to i64
  %6 = and i64 %5, 1
  %.not.i = icmp eq i64 %6, 0
  br i1 %.not.i, label %10, label %7

7:                                                ; preds = %.backedge
  %8 = lshr i64 %5, 1
  %9 = trunc i64 %8 to i32
  br label %lean_obj_tag.exit

10:                                               ; preds = %.backedge
  %11 = getelementptr i8, ptr %.015, i64 4
  %.val.i = load i32, ptr %11, align 4
  %12 = lshr i32 %.val.i, 24
  br label %lean_obj_tag.exit

lean_obj_tag.exit:                                ; preds = %7, %10
  %.0.i17 = phi i32 [ %9, %7 ], [ %12, %10 ]
  %13 = icmp eq i32 %.0.i17, 0
  br i1 %13, label %.loopexit, label %14

14:                                               ; preds = %lean_obj_tag.exit
  %15 = getelementptr inbounds nuw i8, ptr %.015, i64 8
  %16 = load ptr, ptr %15, align 8, !tbaa !4
  %17 = getelementptr inbounds nuw i8, ptr %.015, i64 16
  %18 = load ptr, ptr %17, align 8, !tbaa !4
  %19 = getelementptr inbounds nuw i8, ptr %.015, i64 24
  %20 = load ptr, ptr %19, align 8, !tbaa !4
  %21 = ptrtoint ptr %16 to i64
  %22 = and i64 %4, %21
  %or.cond.not = icmp eq i64 %22, 0
  br i1 %or.cond.not, label %lean_nat_eq.exit, label %23, !prof !18

23:                                               ; preds = %14
  %24 = icmp eq ptr %16, %0
  br i1 %24, label %26, label %.backedge.backedge

lean_nat_eq.exit:                                 ; preds = %14
  %25 = tail call zeroext i1 @lean_nat_big_eq(ptr noundef %16, ptr noundef %0) #5
  br i1 %25, label %26, label %.backedge.backedge

.backedge.backedge:                               ; preds = %lean_nat_eq.exit, %23
  br label %.backedge

26:                                               ; preds = %23, %lean_nat_eq.exit
  %27 = ptrtoint ptr %18 to i64
  %28 = and i64 %27, 1
  %.not = icmp eq i64 %28, 0
  br i1 %.not, label %29, label %lean_inc.exit

29:                                               ; preds = %26
  %.val.i18 = load i32, ptr %18, align 4, !tbaa !8
  %30 = icmp sgt i32 %.val.i18, 0
  br i1 %30, label %31, label %33, !prof !11

31:                                               ; preds = %29
  %32 = add nuw i32 %.val.i18, 1
  store i32 %32, ptr %18, align 4, !tbaa !8
  br label %lean_inc.exit

33:                                               ; preds = %29
  %.not.i19 = icmp eq i32 %.val.i18, 0
  br i1 %.not.i19, label %lean_inc.exit, label %34

34:                                               ; preds = %33
  tail call void @lean_inc_ref_cold(ptr noundef nonnull %18) #5
  br label %lean_inc.exit

lean_inc.exit:                                    ; preds = %34, %33, %31, %26
  tail call void @lean_inc_heartbeat() #5
  %35 = tail call noalias ptr @mi_malloc_small(i64 noundef 16) #5
  %36 = icmp eq ptr %35, null
  br i1 %36, label %37, label %.thread

37:                                               ; preds = %lean_inc.exit
  tail call void @lean_internal_panic_out_of_memory() #6
  unreachable

.thread:                                          ; preds = %lean_inc.exit
  %38 = getelementptr inbounds nuw i8, ptr %35, i64 4
  store i32 1, ptr %35, align 4, !tbaa !8
  store i32 16842768, ptr %38, align 4
  %39 = getelementptr inbounds nuw i8, ptr %35, i64 8
  store ptr %18, ptr %39, align 8, !tbaa !4
  br label %.loopexit

.loopexit:                                        ; preds = %lean_obj_tag.exit, %.thread
  %.1 = phi ptr [ %35, %.thread ], [ inttoptr (i64 1 to ptr), %lean_obj_tag.exit ]
  ret ptr %.1
}